; Function Attrs: nounwind uwtable
define hidden noundef ptr @SDL_GetGamepadFromID_REAL(i32 noundef %0) local_unnamed_addr #0 {
  tail call void @SDL_LockJoysticks_REAL() #10
  %.08 = load ptr, ptr @SDL_gamepads, align 8
  %.not9 = icmp eq ptr %.08, null
  br i1 %.not9, label %._crit_edge, label %.lr.ph

.lr.ph:                                           ; preds = %1, %5
  %.010 = phi ptr [ %.0, %5 ], [ %.08, %1 ]
  %2 = load ptr, ptr %.010, align 8
  %3 = load i32, ptr %2, align 8
  %4 = icmp eq i32 %3, %0
  br i1 %4, label %._crit_edge, label %5

5:                                                ; preds = %.lr.ph
  %6 = getelementptr inbounds nuw i8, ptr %.010, i64 80
  %.0 = load ptr, ptr %6, align 8
  %.not = icmp eq ptr %.0, null
  br i1 %.not, label %._crit_edge, label %.lr.ph, !llvm.loop !15

._crit_edge:                                      ; preds = %5, %.lr.ph, %1
  %.07 = phi ptr [ null, %1 ], [ %.010, %.lr.ph ], [ null, %5 ]
  tail call void @SDL_UnlockJoysticks_REAL() #10
  ret ptr %.07
}